target datalayout = "e-m:e-p270:32:32-p271:32:32-p272:64:64-i64:64-i128:128-f80:128-n8:16:32:64-S128"
target triple = "x86_64-pc-linux-gnu"

%union.pthread_mutex_t = type { %struct.__pthread_mutex_s }
%struct.__pthread_mutex_s = type { i32, i32, i32, i32, i32, i16, i16, %struct.__pthread_internal_list }
%struct.__pthread_internal_list = type { ptr, ptr }
%struct.reload_th_t = type { ptr, ptr, i32 }

@g_newengine = dso_local global ptr null, align 8
@syncpipe_wake_recv_w = internal global i32 -1, align 4
@.str = private unnamed_addr constant [1 x i8] zeroinitializer, align 1
@.str.1 = private unnamed_addr constant [29 x i8] c"Failed to write to syncpipe\0A\00", align 1
@reload_stage_mutex = internal global %union.pthread_mutex_t zeroinitializer, align 8
@reload_stage = internal global i32 0, align 4
@.str.248 = private unnamed_addr constant [67 x i8] c"reload_th: Invalid arguments, unable to load signature databases.\0A\00", align 1
@.str.249 = private unnamed_addr constant [27 x i8] c"Reading databases from %s\0A\00", align 1
@.str.250 = private unnamed_addr constant [46 x i8] c"reload_th: Can't initialize antivirus engine\0A\00", align 1
@.str.251 = private unnamed_addr constant [57 x i8] c"reload_th: Failed to apply previous engine settings: %s\0A\00", align 1
@.str.252 = private unnamed_addr constant [37 x i8] c"reload_th: Database load failed: %s\0A\00", align 1
@.str.253 = private unnamed_addr constant [68 x i8] c"reload_th: Database initialization error: can't compile engine: %s\0A\00", align 1
@.str.254 = private unnamed_addr constant [45 x i8] c"Database correctly reloaded (%u signatures)\0A\00", align 1

; Function Attrs: nounwind uwtable
define internal ptr @reload_th(ptr noundef %0) #0 {
  %2 = alloca ptr, align 8
  %3 = alloca i32, align 4
  %4 = alloca ptr, align 8
  %5 = alloca ptr, align 8
  %6 = alloca i32, align 4
  %7 = alloca i32, align 4
  store ptr %0, ptr %2, align 8
  store i32 4, ptr %3, align 4
  %8 = load ptr, ptr %2, align 8
  store ptr %8, ptr %4, align 8
  store ptr null, ptr %5, align 8
  store i32 0, ptr %6, align 4
  %9 = load ptr, ptr %4, align 8
  %10 = icmp eq ptr null, %9
  br i1 %10, label %21, label %11

11:                                               ; preds = %1
  %12 = load ptr, ptr %4, align 8
  %13 = getelementptr inbounds %struct.reload_th_t, ptr %12, i32 0, i32 1
  %14 = load ptr, ptr %13, align 8
  %15 = icmp eq ptr null, %14
  br i1 %15, label %21, label %16

16:                                               ; preds = %11
  %17 = load ptr, ptr %4, align 8
  %18 = getelementptr inbounds %struct.reload_th_t, ptr %17, i32 0, i32 0
  %19 = load ptr, ptr %18, align 8
  %20 = icmp eq ptr null, %19
  br i1 %20, label %21, label %23

21:                                               ; preds = %16, %11, %1
  %22 = call i32 (i32, ptr, ...) @logg(i32 noundef 5, ptr noundef @.str.248)
  store i32 3, ptr %3, align 4
  br label %71

23:                                               ; preds = %16
  %24 = load ptr, ptr %4, align 8
  %25 = getelementptr inbounds %struct.reload_th_t, ptr %24, i32 0, i32 1
  %26 = load ptr, ptr %25, align 8
  %27 = call i32 (i32, ptr, ...) @logg(i32 noundef 0, ptr noundef @.str.249, ptr noundef %26)
  %28 = call ptr @cl_engine_new()
  store ptr %28, ptr %5, align 8
  %29 = icmp eq ptr null, %28
  br i1 %29, label %30, label %32

30:                                               ; preds = %23
  %31 = call i32 (i32, ptr, ...) @logg(i32 noundef 5, ptr noundef @.str.250)
  br label %71

32:                                               ; preds = %23
  %33 = load ptr, ptr %5, align 8
  %34 = load ptr, ptr %4, align 8
  %35 = getelementptr inbounds %struct.reload_th_t, ptr %34, i32 0, i32 0
  %36 = load ptr, ptr %35, align 8
  %37 = call i32 @cl_engine_settings_apply(ptr noundef %33, ptr noundef %36)
  store i32 %37, ptr %7, align 4
  %38 = load i32, ptr %7, align 4
  %39 = icmp ne i32 0, %38
  br i1 %39, label %40, label %44

40:                                               ; preds = %32
  %41 = load i32, ptr %7, align 4
  %42 = call ptr @cl_strerror(i32 noundef %41)
  %43 = call i32 (i32, ptr, ...) @logg(i32 noundef 5, ptr noundef @.str.251, ptr noundef %42)
  store i32 20, ptr %3, align 4
  br label %71

44:                                               ; preds = %32
  %45 = load ptr, ptr %4, align 8
  %46 = getelementptr inbounds %struct.reload_th_t, ptr %45, i32 0, i32 1
  %47 = load ptr, ptr %46, align 8
  %48 = load ptr, ptr %5, align 8
  %49 = load ptr, ptr %4, align 8
  %50 = getelementptr inbounds %struct.reload_th_t, ptr %49, i32 0, i32 2
  %51 = load i32, ptr %50, align 8
  %52 = call i32 @cl_load(ptr noundef %47, ptr noundef %48, ptr noundef %6, i32 noundef %51)
  store i32 %52, ptr %7, align 4
  %53 = load i32, ptr %7, align 4
  %54 = icmp ne i32 0, %53
  br i1 %54, label %55, label %59

55:                                               ; preds = %44
  %56 = load i32, ptr %7, align 4
  %57 = call ptr @cl_strerror(i32 noundef %56)
  %58 = call i32 (i32, ptr, ...) @logg(i32 noundef 5, ptr noundef @.str.252, ptr noundef %57)
  br label %71

59:                                               ; preds = %44
  %60 = load ptr, ptr %5, align 8
  %61 = call i32 @cl_engine_compile(ptr noundef %60)
  store i32 %61, ptr %7, align 4
  %62 = load i32, ptr %7, align 4
  %63 = icmp ne i32 0, %62
  br i1 %63, label %64, label %68

64:                                               ; preds = %59
  %65 = load i32, ptr %7, align 4
  %66 = call ptr @cl_strerror(i32 noundef %65)
  %67 = call i32 (i32, ptr, ...) @logg(i32 noundef 5, ptr noundef @.str.253, ptr noundef %66)
  br label %71

68:                                               ; preds = %59
  %69 = load i32, ptr %6, align 4
  %70 = call i32 (i32, ptr, ...) @logg(i32 noundef 0, ptr noundef @.str.254, i32 noundef %69)
  store i32 0, ptr %3, align 4
  br label %71

71:                                               ; preds = %68, %64, %55, %40, %30, %21
  %72 = load ptr, ptr %4, align 8
  %73 = icmp ne ptr null, %72
  br i1 %73, label %74, label %95

74:                                               ; preds = %71
  %75 = load ptr, ptr %4, align 8
  %76 = getelementptr inbounds %struct.reload_th_t, ptr %75, i32 0, i32 0
  %77 = load ptr, ptr %76, align 8
  %78 = icmp ne ptr null, %77
  br i1 %78, label %79, label %84

79:                                               ; preds = %74
  %80 = load ptr, ptr %4, align 8
  %81 = getelementptr inbounds %struct.reload_th_t, ptr %80, i32 0, i32 0
  %82 = load ptr, ptr %81, align 8
  %83 = call i32 @cl_engine_settings_free(ptr noundef %82)
  br label %84

84:                                               ; preds = %79, %74
  %85 = load ptr, ptr %4, align 8
  %86 = getelementptr inbounds %struct.reload_th_t, ptr %85, i32 0, i32 1
  %87 = load ptr, ptr %86, align 8
  %88 = icmp ne ptr null, %87
  br i1 %88, label %89, label %93

89:                                               ; preds = %84
  %90 = load ptr, ptr %4, align 8
  %91 = getelementptr inbounds %struct.reload_th_t, ptr %90, i32 0, i32 1
  %92 = load ptr, ptr %91, align 8
  call void @free(ptr noundef %92) #9
  br label %93

93:                                               ; preds = %89, %84
  %94 = load ptr, ptr %4, align 8
  call void @free(ptr noundef %94) #9
  br label %95

95:                                               ; preds = %93, %71
  %96 = load i32, ptr %3, align 4
  %97 = icmp ne i32 0, %96
  br i1 %97, label %98, label %105

98:                                               ; preds = %95
  %99 = load ptr, ptr %5, align 8
  %100 = icmp ne ptr null, %99
  br i1 %100, label %101, label %104

101:                                              ; preds = %98
  %102 = load ptr, ptr %5, align 8
  %103 = call i32 @cl_engine_free(ptr noundef %102)
  store ptr null, ptr %5, align 8
  br label %104

104:                                              ; preds = %101, %98
  br label %105

105:                                              ; preds = %104, %95
  %106 = call i32 @pthread_mutex_lock(ptr noundef @reload_stage_mutex) #9
  store i32 2, ptr @reload_stage, align 4
  %107 = load ptr, ptr %5, align 8
  store ptr %107, ptr @g_newengine, align 8
  %108 = call i32 @pthread_mutex_unlock(ptr noundef @reload_stage_mutex) #9
  %109 = load i32, ptr @syncpipe_wake_recv_w, align 4
  %110 = icmp ne i32 %109, -1
  br i1 %110, label %111, label %118

111:                                              ; preds = %105
  %112 = load i32, ptr @syncpipe_wake_recv_w, align 4
  %113 = call i64 @write(i32 noundef %112, ptr noundef @.str, i64 noundef 1)
  %114 = icmp ne i64 %113, 1
  br i1 %114, label %115, label %117

115:                                              ; preds = %111
  %116 = call i32 (i32, ptr, ...) @logg(i32 noundef 3, ptr noundef @.str.1)
  br label %117

117:                                              ; preds = %115, %111
  br label %118

118:                                              ; preds = %117, %105
  ret ptr null
}