; Function Attrs: nounwind uwtable
define internal noalias noundef ptr @reload_th(ptr noundef %0) #0 {
  %2 = alloca i32, align 4
  store i32 0, ptr %2, align 4
  %3 = icmp eq ptr %0, null
  br i1 %3, label %.thread51, label %4

4:                                                ; preds = %1
  %5 = getelementptr inbounds i8, ptr %0, i64 8
  %6 = load ptr, ptr %5, align 8
  %7 = icmp eq ptr %6, null
  br i1 %7, label %.thread50, label %8

8:                                                ; preds = %4
  %9 = load ptr, ptr %0, align 8
  %10 = icmp eq ptr %9, null
  br i1 %10, label %.thread50, label %11

11:                                               ; preds = %8
  %12 = tail call i32 (i32, ptr, ...) @logg(i32 noundef 0, ptr noundef nonnull @.str.249, ptr noundef nonnull %6) #15
  %13 = tail call ptr @cl_engine_new() #15
  %14 = icmp eq ptr %13, null
  br i1 %14, label %15, label %17

15:                                               ; preds = %11
  %16 = tail call i32 (i32, ptr, ...) @logg(i32 noundef 5, ptr noundef nonnull @.str.250) #15
  br label %.thread

17:                                               ; preds = %11
  %18 = load ptr, ptr %0, align 8
  %19 = tail call i32 @cl_engine_settings_apply(ptr noundef nonnull %13, ptr noundef %18) #15
  %.not = icmp eq i32 %19, 0
  br i1 %.not, label %23, label %20

20:                                               ; preds = %17
  %21 = tail call ptr @cl_strerror(i32 noundef %19) #15
  %22 = tail call i32 (i32, ptr, ...) @logg(i32 noundef 5, ptr noundef nonnull @.str.251, ptr noundef %21) #15
  br label %.thread

23:                                               ; preds = %17
  %24 = load ptr, ptr %5, align 8
  %25 = getelementptr inbounds i8, ptr %0, i64 16
  %26 = load i32, ptr %25, align 8
  %27 = call i32 @cl_load(ptr noundef %24, ptr noundef nonnull %13, ptr noundef nonnull %2, i32 noundef %26) #15
  %.not39 = icmp eq i32 %27, 0
  br i1 %.not39, label %31, label %28

28:                                               ; preds = %23
  %29 = call ptr @cl_strerror(i32 noundef %27) #15
  %30 = call i32 (i32, ptr, ...) @logg(i32 noundef 5, ptr noundef nonnull @.str.252, ptr noundef %29) #15
  br label %.thread

31:                                               ; preds = %23
  %32 = call i32 @cl_engine_compile(ptr noundef nonnull %13) #15
  %.not40 = icmp eq i32 %32, 0
  br i1 %.not40, label %36, label %33

33:                                               ; preds = %31
  %34 = call ptr @cl_strerror(i32 noundef %32) #15
  %35 = call i32 (i32, ptr, ...) @logg(i32 noundef 5, ptr noundef nonnull @.str.253, ptr noundef %34) #15
  br label %.thread

36:                                               ; preds = %31
  %37 = load i32, ptr %2, align 4
  %38 = call i32 (i32, ptr, ...) @logg(i32 noundef 0, ptr noundef nonnull @.str.254, i32 noundef %37) #15
  br label %.thread

.thread50:                                        ; preds = %4, %8
  %39 = tail call i32 (i32, ptr, ...) @logg(i32 noundef 5, ptr noundef nonnull @.str.248) #15
  br label %.thread

.thread51:                                        ; preds = %1
  %40 = tail call i32 (i32, ptr, ...) @logg(i32 noundef 5, ptr noundef nonnull @.str.248) #15
  br label %52

.thread:                                          ; preds = %15, %20, %28, %33, %36, %.thread50
  %.047 = phi ptr [ null, %.thread50 ], [ %13, %36 ], [ %13, %33 ], [ %13, %28 ], [ %13, %20 ], [ null, %15 ]
  %41 = phi i1 [ true, %.thread50 ], [ false, %36 ], [ true, %33 ], [ true, %28 ], [ true, %20 ], [ true, %15 ]
  %42 = load ptr, ptr %0, align 8
  %.not42 = icmp eq ptr %42, null
  br i1 %.not42, label %45, label %43

43:                                               ; preds = %.thread
  %44 = call i32 @cl_engine_settings_free(ptr noundef nonnull %42) #15
  br label %45

45:                                               ; preds = %43, %.thread
  %46 = load ptr, ptr %5, align 8
  %.not43 = icmp eq ptr %46, null
  br i1 %.not43, label %48, label %47

47:                                               ; preds = %45
  call void @free(ptr noundef nonnull %46) #15
  br label %48

48:                                               ; preds = %45, %47
  call void @free(ptr noundef nonnull %0) #15
  %49 = icmp ne ptr %.047, null
  %or.cond = and i1 %41, %49
  br i1 %or.cond, label %50, label %52

50:                                               ; preds = %48
  %51 = call i32 @cl_engine_free(ptr noundef nonnull %.047) #15
  br label %52

52:                                               ; preds = %.thread51, %50, %48
  %.1 = phi ptr [ null, %50 ], [ %.047, %48 ], [ null, %.thread51 ]
  %53 = call i32 @pthread_mutex_lock(ptr noundef nonnull @reload_stage_mutex) #15
  store i32 2, ptr @reload_stage, align 4
  store ptr %.1, ptr @g_newengine, align 8
  %54 = call i32 @pthread_mutex_unlock(ptr noundef nonnull @reload_stage_mutex) #15
  %55 = load i32, ptr @syncpipe_wake_recv_w, align 4
  %.not44 = icmp eq i32 %55, -1
  br i1 %.not44, label %60, label %56

56:                                               ; preds = %52
  %57 = call i64 @write(i32 noundef %55, ptr noundef nonnull @.str, i64 noundef 1) #15
  %.not45 = icmp eq i64 %57, 1
  br i1 %.not45, label %60, label %58

58:                                               ; preds = %56
  %59 = call i32 (i32, ptr, ...) @logg(i32 noundef 3, ptr noundef nonnull @.str.1) #15
  br label %60

60:                                               ; preds = %56, %58, %52
  ret ptr null
}